target datalayout = "e-m:e-p270:32:32-p271:32:32-p272:64:64-i64:64-i128:128-f80:128-n8:16:32:64-S128"
target triple = "x86_64-pc-linux-gnu"

%struct.lxb_css_selector_anb_of_t = type { %struct.lxb_css_syntax_anb_t, ptr }
%struct.lxb_css_syntax_anb_t = type { i64, i64 }

; Function Attrs: nounwind uwtable
define internal zeroext i1 @lxb_selectors_anb_calc(ptr noundef %0, i64 noundef %1) #0 {
  %3 = alloca i1, align 1
  %4 = alloca ptr, align 8
  %5 = alloca i64, align 8
  %6 = alloca double, align 8
  store ptr %0, ptr %4, align 8
  store i64 %1, ptr %5, align 8
  %7 = load ptr, ptr %4, align 8
  %8 = getelementptr inbounds %struct.lxb_css_selector_anb_of_t, ptr %7, i32 0, i32 0
  %9 = getelementptr inbounds %struct.lxb_css_syntax_anb_t, ptr %8, i32 0, i32 0
  %10 = load i64, ptr %9, align 8
  %11 = icmp eq i64 %10, 0
  br i1 %11, label %12, label %27

12:                                               ; preds = %2
  %13 = load ptr, ptr %4, align 8
  %14 = getelementptr inbounds %struct.lxb_css_selector_anb_of_t, ptr %13, i32 0, i32 0
  %15 = getelementptr inbounds %struct.lxb_css_syntax_anb_t, ptr %14, i32 0, i32 1
  %16 = load i64, ptr %15, align 8
  %17 = icmp sge i64 %16, 0
  br i1 %17, label %18, label %26

18:                                               ; preds = %12
  %19 = load ptr, ptr %4, align 8
  %20 = getelementptr inbounds %struct.lxb_css_selector_anb_of_t, ptr %19, i32 0, i32 0
  %21 = getelementptr inbounds %struct.lxb_css_syntax_anb_t, ptr %20, i32 0, i32 1
  %22 = load i64, ptr %21, align 8
  %23 = load i64, ptr %5, align 8
  %24 = icmp eq i64 %22, %23
  br i1 %24, label %25, label %26

25:                                               ; preds = %18
  store i1 true, ptr %3, align 1
  br label %53

26:                                               ; preds = %18, %12
  br label %52

27:                                               ; preds = %2
  %28 = load i64, ptr %5, align 8
  %29 = uitofp i64 %28 to double
  %30 = load ptr, ptr %4, align 8
  %31 = getelementptr inbounds %struct.lxb_css_selector_anb_of_t, ptr %30, i32 0, i32 0
  %32 = getelementptr inbounds %struct.lxb_css_syntax_anb_t, ptr %31, i32 0, i32 1
  %33 = load i64, ptr %32, align 8
  %34 = sitofp i64 %33 to double
  %35 = fsub double %29, %34
  %36 = load ptr, ptr %4, align 8
  %37 = getelementptr inbounds %struct.lxb_css_selector_anb_of_t, ptr %36, i32 0, i32 0
  %38 = getelementptr inbounds %struct.lxb_css_syntax_anb_t, ptr %37, i32 0, i32 0
  %39 = load i64, ptr %38, align 8
  %40 = sitofp i64 %39 to double
  %41 = fdiv double %35, %40
  store double %41, ptr %6, align 8
  %42 = load double, ptr %6, align 8
  %43 = fcmp oge double %42, 0.000000e+00
  br i1 %43, label %44, label %51

44:                                               ; preds = %27
  %45 = load double, ptr %6, align 8
  %46 = load double, ptr %6, align 8
  %47 = call double @llvm.trunc.f64(double %46)
  %48 = fsub double %45, %47
  %49 = fcmp oeq double %48, 0.000000e+00
  br i1 %49, label %50, label %51

50:                                               ; preds = %44
  store i1 true, ptr %3, align 1
  br label %53

51:                                               ; preds = %44, %27
  br label %52

52:                                               ; preds = %51, %26
  store i1 false, ptr %3, align 1
  br label %53

53:                                               ; preds = %52, %50, %25
  %54 = load i1, ptr %3, align 1
  ret i1 %54
}