; Function Attrs: mustprogress nofree norecurse nosync nounwind willreturn memory(argmem: read) uwtable
define internal fastcc noundef zeroext i1 @lxb_selectors_anb_calc(ptr nocapture noundef readonly %0, i64 noundef %1) unnamed_addr #3 {
  %3 = load i64, ptr %0, align 8
  %4 = icmp eq i64 %3, 0
  br i1 %4, label %5, label %10

5:                                                ; preds = %2
  %6 = getelementptr inbounds i8, ptr %0, i64 8
  %7 = load i64, ptr %6, align 8
  %8 = icmp sgt i64 %7, -1
  %9 = icmp eq i64 %7, %1
  %or.cond = and i1 %8, %9
  br i1 %or.cond, label %24, label %23

10:                                               ; preds = %2
  %11 = uitofp i64 %1 to double
  %12 = getelementptr inbounds i8, ptr %0, i64 8
  %13 = load i64, ptr %12, align 8
  %14 = sitofp i64 %13 to double
  %15 = fsub double %11, %14
  %16 = sitofp i64 %3 to double
  %17 = fdiv double %15, %16
  %18 = fcmp ult double %17, 0.000000e+00
  br i1 %18, label %23, label %19

19:                                               ; preds = %10
  %20 = tail call double @llvm.trunc.f64(double %17)
  %21 = fsub double %17, %20
  %22 = fcmp oeq double %21, 0.000000e+00
  br i1 %22, label %24, label %23

23:                                               ; preds = %10, %19, %5
  br label %24

24:                                               ; preds = %19, %5, %23
  %.0 = phi i1 [ false, %23 ], [ true, %5 ], [ true, %19 ]
  ret i1 %.0
}